; Function Attrs: nounwind uwtable
define internal i32 @pmix_pmdl_close() #1 {
  %1 = load i8, ptr getelementptr inbounds nuw (i8, ptr @pmix_pmdl_globals, i64 496), align 8, !tbaa !3, !range !30, !noundef !31
  %2 = trunc nuw i8 %1 to i1
  br i1 %2, label %3, label %57

3:                                                ; preds = %0
  store i8 0, ptr getelementptr inbounds nuw (i8, ptr @pmix_pmdl_globals, i64 496), align 8, !tbaa !3
  store i8 0, ptr getelementptr inbounds nuw (i8, ptr @pmix_pmdl_globals, i64 497), align 1, !tbaa !32
  %4 = load ptr, ptr getelementptr inbounds nuw (i8, ptr @pmix_pmdl_globals, i64 464), align 8, !tbaa !33
  %.not32 = icmp eq ptr %4, getelementptr inbounds nuw (i8, ptr @pmix_pmdl_globals, i64 344)
  br i1 %.not32, label %._crit_edge, label %.lr.ph

.lr.ph:                                           ; preds = %3, %40
  %.01533 = phi ptr [ %.01434, %40 ], [ %4, %3 ]
  %.01434.in = getelementptr inbounds nuw i8, ptr %.01533, i64 120
  %.01434 = load ptr, ptr %.01434.in, align 8, !tbaa !34
  %5 = getelementptr inbounds nuw i8, ptr %.01533, i64 128
  %6 = load ptr, ptr %5, align 8, !tbaa !35
  %7 = getelementptr inbounds nuw i8, ptr %6, i64 120
  store volatile ptr %.01434, ptr %7, align 8, !tbaa !34
  %8 = getelementptr inbounds nuw i8, ptr %.01434, i64 128
  store volatile ptr %6, ptr %8, align 8, !tbaa !35
  %9 = load volatile i64, ptr getelementptr inbounds nuw (i8, ptr @pmix_pmdl_globals, i64 488), align 8, !tbaa !36
  %10 = add i64 %9, -1
  store volatile i64 %10, ptr getelementptr inbounds nuw (i8, ptr @pmix_pmdl_globals, i64 488), align 8, !tbaa !36
  %11 = getelementptr inbounds nuw i8, ptr %.01533, i64 152
  %12 = load ptr, ptr %11, align 8, !tbaa !37
  %13 = getelementptr inbounds nuw i8, ptr %12, i64 16
  %14 = load ptr, ptr %13, align 8, !tbaa !40
  %.not17 = icmp eq ptr %14, null
  br i1 %.not17, label %16, label %15

15:                                               ; preds = %.lr.ph
  tail call void %14() #8
  br label %16

16:                                               ; preds = %.lr.ph, %15
  %17 = tail call i32 @pthread_mutex_lock(ptr noundef %.01533) #8
  %18 = icmp eq i32 %17, 35
  br i1 %18, label %19, label %pmix_obj_update.exit

19:                                               ; preds = %16
  %20 = tail call ptr @__errno_location() #9
  store i32 35, ptr %20, align 4, !tbaa !19
  tail call void @perror(ptr noundef nonnull @.str.7) #10
  tail call void @abort() #11
  unreachable

pmix_obj_update.exit:                             ; preds = %16
  %21 = getelementptr inbounds nuw i8, ptr %.01533, i64 48
  %22 = load i32, ptr %21, align 8, !tbaa !24
  %23 = add nsw i32 %22, -1
  store i32 %23, ptr %21, align 8, !tbaa !24
  %24 = tail call i32 @pthread_mutex_unlock(ptr noundef %.01533) #8
  %25 = icmp eq i32 %23, 0
  br i1 %25, label %26, label %40

26:                                               ; preds = %pmix_obj_update.exit
  %27 = getelementptr inbounds nuw i8, ptr %.01533, i64 40
  %28 = load ptr, ptr %27, align 8, !tbaa !23
  %29 = getelementptr inbounds nuw i8, ptr %28, i64 48
  %30 = load ptr, ptr %29, align 8, !tbaa !42
  %31 = load ptr, ptr %30, align 8, !tbaa !26
  %.not6.i = icmp eq ptr %31, null
  br i1 %.not6.i, label %pmix_obj_run_destructors.exit, label %.lr.ph.i

.lr.ph.i:                                         ; preds = %26, %.lr.ph.i
  %32 = phi ptr [ %34, %.lr.ph.i ], [ %31, %26 ]
  %.07.i = phi ptr [ %33, %.lr.ph.i ], [ %30, %26 ]
  tail call void %32(ptr noundef %.01533) #8
  %33 = getelementptr inbounds nuw i8, ptr %.07.i, i64 8
  %34 = load ptr, ptr %33, align 8, !tbaa !26
  %.not.i = icmp eq ptr %34, null
  br i1 %.not.i, label %pmix_obj_run_destructors.exit, label %.lr.ph.i, !llvm.loop !43

pmix_obj_run_destructors.exit:                    ; preds = %.lr.ph.i, %26
  %35 = getelementptr inbounds nuw i8, ptr %.01533, i64 96
  %36 = load ptr, ptr %35, align 8, !tbaa !44
  %.not18 = icmp eq ptr %36, null
  br i1 %.not18, label %39, label %37

37:                                               ; preds = %pmix_obj_run_destructors.exit
  %38 = getelementptr inbounds nuw i8, ptr %.01533, i64 56
  tail call void %36(ptr noundef nonnull %38, ptr noundef nonnull %.01533) #8
  br label %40

39:                                               ; preds = %pmix_obj_run_destructors.exit
  tail call void @free(ptr noundef nonnull %.01533) #8
  br label %40

40:                                               ; preds = %37, %39, %pmix_obj_update.exit
  %.not = icmp eq ptr %.01434, getelementptr inbounds nuw (i8, ptr @pmix_pmdl_globals, i64 344)
  br i1 %.not, label %._crit_edge, label %.lr.ph, !llvm.loop !45

._crit_edge:                                      ; preds = %40, %3
  %41 = load ptr, ptr getelementptr inbounds nuw (i8, ptr @pmix_pmdl_globals, i64 264), align 8, !tbaa !23
  %42 = getelementptr inbounds nuw i8, ptr %41, i64 48
  %43 = load ptr, ptr %42, align 8, !tbaa !42
  %44 = load ptr, ptr %43, align 8, !tbaa !26
  %.not6.i20 = icmp eq ptr %44, null
  br i1 %.not6.i20, label %pmix_obj_run_destructors.exit24, label %.lr.ph.i21

.lr.ph.i21:                                       ; preds = %._crit_edge, %.lr.ph.i21
  %45 = phi ptr [ %47, %.lr.ph.i21 ], [ %44, %._crit_edge ]
  %.07.i22 = phi ptr [ %46, %.lr.ph.i21 ], [ %43, %._crit_edge ]
  tail call void %45(ptr noundef nonnull getelementptr inbounds nuw (i8, ptr @pmix_pmdl_globals, i64 224)) #8
  %46 = getelementptr inbounds nuw i8, ptr %.07.i22, i64 8
  %47 = load ptr, ptr %46, align 8, !tbaa !26
  %.not.i23 = icmp eq ptr %47, null
  br i1 %.not.i23, label %pmix_obj_run_destructors.exit24, label %.lr.ph.i21, !llvm.loop !43

pmix_obj_run_destructors.exit24:                  ; preds = %.lr.ph.i21, %._crit_edge
  %48 = load ptr, ptr getelementptr inbounds nuw (i8, ptr @pmix_pmdl_globals, i64 48), align 8, !tbaa !23
  %49 = getelementptr inbounds nuw i8, ptr %48, i64 48
  %50 = load ptr, ptr %49, align 8, !tbaa !42
  %51 = load ptr, ptr %50, align 8, !tbaa !26
  %.not6.i25 = icmp eq ptr %51, null
  br i1 %.not6.i25, label %pmix_obj_run_destructors.exit29, label %.lr.ph.i26

.lr.ph.i26:                                       ; preds = %pmix_obj_run_destructors.exit24, %.lr.ph.i26
  %52 = phi ptr [ %54, %.lr.ph.i26 ], [ %51, %pmix_obj_run_destructors.exit24 ]
  %.07.i27 = phi ptr [ %53, %.lr.ph.i26 ], [ %50, %pmix_obj_run_destructors.exit24 ]
  tail call void %52(ptr noundef nonnull getelementptr inbounds nuw (i8, ptr @pmix_pmdl_globals, i64 8)) #8
  %53 = getelementptr inbounds nuw i8, ptr %.07.i27, i64 8
  %54 = load ptr, ptr %53, align 8, !tbaa !26
  %.not.i28 = icmp eq ptr %54, null
  br i1 %.not.i28, label %pmix_obj_run_destructors.exit29, label %.lr.ph.i26, !llvm.loop !43

pmix_obj_run_destructors.exit29:                  ; preds = %.lr.ph.i26, %pmix_obj_run_destructors.exit24
  %55 = tail call i32 @pthread_cond_destroy(ptr noundef nonnull getelementptr inbounds nuw (i8, ptr @pmix_pmdl_globals, i64 168)) #8
  %56 = tail call i32 @pmix_mca_base_framework_components_close(ptr noundef nonnull @pmix_pmdl_base_framework, ptr noundef null) #8
  br label %57

57:                                               ; preds = %0, %pmix_obj_run_destructors.exit29
  %.0 = phi i32 [ %56, %pmix_obj_run_destructors.exit29 ], [ 0, %0 ]
  ret i32 %.0
}